target datalayout = "e-m:e-p270:32:32-p271:32:32-p272:64:64-i64:64-i128:128-f80:128-n8:16:32:64-S128"
target triple = "x86_64-pc-linux-gnu"

%struct.lua_State = type { %struct.GCRef, i8, i8, i8, i8, %struct.MRef, %struct.GCRef, ptr, ptr, %struct.MRef, %struct.MRef, %struct.GCRef, %struct.GCRef, ptr, i32 }
%struct.MRef = type { i64 }
%struct.GCRef = type { i64 }
%union.TValue = type { i64 }
%struct.GCstr = type { %struct.GCRef, i8, i8, i8, i8, i32, i32, i32 }
%struct.GChead = type { %struct.GCRef, i8, i8, i8, i8, %struct.GCRef, %struct.GCRef, %struct.GCRef }
%struct.GCfuncC = type { %struct.GCRef, i8, i8, i8, i8, %struct.GCRef, %struct.GCRef, %struct.MRef, ptr, [1 x %union.TValue] }

; Function Attrs: nounwind uwtable
define internal i32 @load_aux(ptr noundef %0, i32 noundef %1, i32 noundef %2) #3 {
  %4 = alloca i32, align 4
  %5 = alloca ptr, align 8
  %6 = alloca i32, align 4
  %7 = alloca i32, align 4
  %8 = alloca ptr, align 8
  %9 = alloca ptr, align 8
  store ptr %0, ptr %5, align 8, !tbaa !4
  store i32 %1, ptr %6, align 4, !tbaa !29
  store i32 %2, ptr %7, align 4, !tbaa !29
  %10 = load i32, ptr %6, align 4, !tbaa !29
  %11 = icmp eq i32 %10, 0
  br i1 %11, label %12, label %81

12:                                               ; preds = %3
  %13 = load ptr, ptr %5, align 8, !tbaa !4
  %14 = getelementptr inbounds nuw %struct.lua_State, ptr %13, i32 0, i32 7
  %15 = load ptr, ptr %14, align 8, !tbaa !32
  %16 = load i32, ptr %7, align 4, !tbaa !29
  %17 = sext i32 %16 to i64
  %18 = getelementptr inbounds %union.TValue, ptr %15, i64 %17
  %19 = getelementptr inbounds %union.TValue, ptr %18, i64 -1
  %20 = load i64, ptr %19, align 8, !tbaa !16
  %21 = ashr i64 %20, 47
  %22 = trunc i64 %21 to i32
  %23 = icmp eq i32 %22, -12
  br i1 %23, label %24, label %80

24:                                               ; preds = %12
  %25 = load ptr, ptr %5, align 8, !tbaa !4
  %26 = getelementptr inbounds nuw %struct.lua_State, ptr %25, i32 0, i32 8
  %27 = load ptr, ptr %26, align 8, !tbaa !9
  %28 = getelementptr inbounds %union.TValue, ptr %27, i64 -1
  %29 = load i64, ptr %28, align 8, !tbaa !16
  %30 = ashr i64 %29, 47
  %31 = trunc i64 %30 to i32
  %32 = icmp eq i32 %31, -9
  br i1 %32, label %33, label %80

33:                                               ; preds = %24
  call void @llvm.lifetime.start.p0(i64 8, ptr %8) #11
  %34 = load ptr, ptr %5, align 8, !tbaa !4
  %35 = getelementptr inbounds nuw %struct.lua_State, ptr %34, i32 0, i32 8
  %36 = load ptr, ptr %35, align 8, !tbaa !9
  %37 = getelementptr inbounds %union.TValue, ptr %36, i64 -1
  %38 = getelementptr inbounds nuw %struct.GCRef, ptr %37, i32 0, i32 0
  %39 = load i64, ptr %38, align 8, !tbaa !16
  %40 = and i64 %39, 140737488355327
  %41 = inttoptr i64 %40 to ptr
  store ptr %41, ptr %8, align 8, !tbaa !34
  call void @llvm.lifetime.start.p0(i64 8, ptr %9) #11
  %42 = load ptr, ptr %5, align 8, !tbaa !4
  %43 = getelementptr inbounds nuw %struct.lua_State, ptr %42, i32 0, i32 7
  %44 = load ptr, ptr %43, align 8, !tbaa !32
  %45 = load i32, ptr %7, align 4, !tbaa !29
  %46 = sext i32 %45 to i64
  %47 = getelementptr inbounds %union.TValue, ptr %44, i64 %46
  %48 = getelementptr inbounds %union.TValue, ptr %47, i64 -1
  %49 = getelementptr inbounds nuw %struct.GCRef, ptr %48, i32 0, i32 0
  %50 = load i64, ptr %49, align 8, !tbaa !16
  %51 = and i64 %50, 140737488355327
  %52 = inttoptr i64 %51 to ptr
  store ptr %52, ptr %9, align 8, !tbaa !20
  %53 = load ptr, ptr %9, align 8, !tbaa !20
  %54 = ptrtoint ptr %53 to i64
  %55 = load ptr, ptr %8, align 8, !tbaa !34
  %56 = getelementptr inbounds nuw %struct.GCfuncC, ptr %55, i32 0, i32 5
  %57 = getelementptr inbounds nuw %struct.GCRef, ptr %56, i32 0, i32 0
  store i64 %54, ptr %57, align 8, !tbaa !16
  %58 = load ptr, ptr %9, align 8, !tbaa !20
  %59 = getelementptr inbounds nuw %struct.GChead, ptr %58, i32 0, i32 1
  %60 = load i8, ptr %59, align 8, !tbaa !16
  %61 = zext i8 %60 to i32
  %62 = and i32 %61, 3
  %63 = icmp ne i32 %62, 0
  br i1 %63, label %64, label %79

64:                                               ; preds = %33
  %65 = load ptr, ptr %8, align 8, !tbaa !34
  %66 = getelementptr inbounds nuw %struct.GChead, ptr %65, i32 0, i32 1
  %67 = load i8, ptr %66, align 8, !tbaa !16
  %68 = zext i8 %67 to i32
  %69 = and i32 %68, 4
  %70 = icmp ne i32 %69, 0
  br i1 %70, label %71, label %79

71:                                               ; preds = %64
  %72 = load ptr, ptr %5, align 8, !tbaa !4
  %73 = getelementptr inbounds nuw %struct.lua_State, ptr %72, i32 0, i32 5
  %74 = getelementptr inbounds nuw %struct.MRef, ptr %73, i32 0, i32 0
  %75 = load i64, ptr %74, align 8, !tbaa !33
  %76 = inttoptr i64 %75 to ptr
  %77 = load ptr, ptr %8, align 8, !tbaa !34
  %78 = load ptr, ptr %9, align 8, !tbaa !20
  call void @lj_gc_barrierf(ptr noundef %76, ptr noundef %77, ptr noundef %78)
  br label %79

79:                                               ; preds = %71, %64, %33
  call void @llvm.lifetime.end.p0(i64 8, ptr %9) #11
  call void @llvm.lifetime.end.p0(i64 8, ptr %8) #11
  br label %80

80:                                               ; preds = %79, %24, %12
  store i32 1, ptr %4, align 4
  br label %86

81:                                               ; preds = %3
  %82 = load ptr, ptr %5, align 8, !tbaa !4
  %83 = getelementptr inbounds nuw %struct.lua_State, ptr %82, i32 0, i32 8
  %84 = load ptr, ptr %83, align 8, !tbaa !9
  %85 = getelementptr inbounds %union.TValue, ptr %84, i64 -2
  store i64 -1, ptr %85, align 8, !tbaa !16
  store i32 2, ptr %4, align 4
  br label %86

86:                                               ; preds = %81, %80
  %87 = load i32, ptr %4, align 4
  ret i32 %87
}

; Function Attrs: nounwind uwtable
define internal i32 @lj_cf_loadfile(ptr noundef %0) #3 {
  %2 = alloca ptr, align 8
  %3 = alloca ptr, align 8
  %4 = alloca ptr, align 8
  %5 = alloca i32, align 4
  store ptr %0, ptr %2, align 8, !tbaa !4
  call void @llvm.lifetime.start.p0(i64 8, ptr %3) #11
  %6 = load ptr, ptr %2, align 8, !tbaa !4
  %7 = call ptr @lj_lib_optstr(ptr noundef %6, i32 noundef 1)
  store ptr %7, ptr %3, align 8, !tbaa !30
  call void @llvm.lifetime.start.p0(i64 8, ptr %4) #11
  %8 = load ptr, ptr %2, align 8, !tbaa !4
  %9 = call ptr @lj_lib_optstr(ptr noundef %8, i32 noundef 2)
  store ptr %9, ptr %4, align 8, !tbaa !30
  call void @llvm.lifetime.start.p0(i64 4, ptr %5) #11
  %10 = load ptr, ptr %2, align 8, !tbaa !4
  call void @lua_settop(ptr noundef %10, i32 noundef 3)
  %11 = load ptr, ptr %2, align 8, !tbaa !4
  %12 = load ptr, ptr %3, align 8, !tbaa !30
  %13 = icmp ne ptr %12, null
  br i1 %13, label %14, label %17

14:                                               ; preds = %1
  %15 = load ptr, ptr %3, align 8, !tbaa !30
  %16 = getelementptr inbounds %struct.GCstr, ptr %15, i64 1
  br label %18

17:                                               ; preds = %1
  br label %18

18:                                               ; preds = %17, %14
  %19 = phi ptr [ %16, %14 ], [ null, %17 ]
  %20 = load ptr, ptr %4, align 8, !tbaa !30
  %21 = icmp ne ptr %20, null
  br i1 %21, label %22, label %25

22:                                               ; preds = %18
  %23 = load ptr, ptr %4, align 8, !tbaa !30
  %24 = getelementptr inbounds %struct.GCstr, ptr %23, i64 1
  br label %26

25:                                               ; preds = %18
  br label %26

26:                                               ; preds = %25, %22
  %27 = phi ptr [ %24, %22 ], [ null, %25 ]
  %28 = call i32 @luaL_loadfilex(ptr noundef %11, ptr noundef %19, ptr noundef %27)
  store i32 %28, ptr %5, align 4, !tbaa !29
  %29 = load ptr, ptr %2, align 8, !tbaa !4
  %30 = load i32, ptr %5, align 4, !tbaa !29
  %31 = call i32 @load_aux(ptr noundef %29, i32 noundef %30, i32 noundef 3)
  call void @llvm.lifetime.end.p0(i64 4, ptr %5) #11
  call void @llvm.lifetime.end.p0(i64 8, ptr %4) #11
  call void @llvm.lifetime.end.p0(i64 8, ptr %3) #11
  ret i32 %31
}