; Function Attrs: nounwind uwtable
define internal range(i32 1, 3) i32 @lj_cf_loadfile(ptr noundef %0) #2 {
  %2 = tail call ptr @lj_lib_optstr(ptr noundef %0, i32 noundef 1) #11
  %3 = tail call ptr @lj_lib_optstr(ptr noundef %0, i32 noundef 2) #11
  tail call void @lua_settop(ptr noundef %0, i32 noundef 3) #11
  %.not = icmp eq ptr %2, null
  %4 = getelementptr inbounds nuw i8, ptr %2, i64 24
  %5 = select i1 %.not, ptr null, ptr %4
  %.not9 = icmp eq ptr %3, null
  %6 = getelementptr inbounds nuw i8, ptr %3, i64 24
  %7 = select i1 %.not9, ptr null, ptr %6
  %8 = tail call i32 @luaL_loadfilex(ptr noundef %0, ptr noundef %5, ptr noundef %7) #11
  %9 = icmp eq i32 %8, 0
  br i1 %9, label %10, label %39

10:                                               ; preds = %1
  %11 = getelementptr inbounds nuw i8, ptr %0, i64 32
  %12 = load ptr, ptr %11, align 8, !tbaa !19
  %13 = getelementptr inbounds nuw i8, ptr %12, i64 16
  %14 = load i64, ptr %13, align 8, !tbaa !14
  %.mask.i = and i64 %14, -140737488355328
  %15 = icmp eq i64 %.mask.i, -1688849860263936
  br i1 %15, label %16, label %load_aux.exit

16:                                               ; preds = %10
  %17 = getelementptr inbounds nuw i8, ptr %0, i64 40
  %18 = load ptr, ptr %17, align 8, !tbaa !4
  %19 = getelementptr inbounds i8, ptr %18, i64 -8
  %20 = load i64, ptr %19, align 8, !tbaa !14
  %.mask15.i = and i64 %20, -140737488355328
  %21 = icmp eq i64 %.mask15.i, -1266637395197952
  br i1 %21, label %22, label %load_aux.exit

22:                                               ; preds = %16
  %23 = and i64 %20, 140737488355327
  %24 = inttoptr i64 %23 to ptr
  %25 = and i64 %14, 140737488355327
  %26 = inttoptr i64 %25 to ptr
  %27 = getelementptr inbounds nuw i8, ptr %24, i64 16
  store i64 %25, ptr %27, align 8, !tbaa !14
  %28 = getelementptr inbounds nuw i8, ptr %26, i64 8
  %29 = load i8, ptr %28, align 8, !tbaa !14
  %30 = and i8 %29, 3
  %.not.i = icmp eq i8 %30, 0
  br i1 %.not.i, label %load_aux.exit, label %31

31:                                               ; preds = %22
  %32 = getelementptr inbounds nuw i8, ptr %24, i64 8
  %33 = load i8, ptr %32, align 8, !tbaa !14
  %34 = and i8 %33, 4
  %.not16.i = icmp eq i8 %34, 0
  br i1 %.not16.i, label %load_aux.exit, label %35

35:                                               ; preds = %31
  %36 = getelementptr inbounds nuw i8, ptr %0, i64 16
  %37 = load i64, ptr %36, align 8, !tbaa !20
  %38 = inttoptr i64 %37 to ptr
  tail call void @lj_gc_barrierf(ptr noundef %38, ptr noundef nonnull %24, ptr noundef nonnull %26) #11
  br label %load_aux.exit

39:                                               ; preds = %1
  %40 = getelementptr inbounds nuw i8, ptr %0, i64 40
  %41 = load ptr, ptr %40, align 8, !tbaa !4
  %42 = getelementptr inbounds i8, ptr %41, i64 -16
  store i64 -1, ptr %42, align 8, !tbaa !14
  br label %load_aux.exit

load_aux.exit:                                    ; preds = %10, %16, %22, %31, %35, %39
  %.0.i = phi i32 [ 2, %39 ], [ 1, %22 ], [ 1, %31 ], [ 1, %35 ], [ 1, %16 ], [ 1, %10 ]
  ret i32 %.0.i
}